target datalayout = "e-m:e-p270:32:32-p271:32:32-p272:64:64-i64:64-i128:128-f80:128-n8:16:32:64-S128"
target triple = "x86_64-pc-linux-gnu"

; Function Attrs: null_pointer_is_valid sspstrong uwtable
define internal zeroext i1 @dissect_nbap_heur(ptr noundef %0, ptr noundef %1, ptr noundef %2, ptr noundef %3) #0 {
  %5 = alloca i1, align 1
  %6 = alloca ptr, align 8
  %7 = alloca ptr, align 8
  %8 = alloca ptr, align 8
  %9 = alloca ptr, align 8
  %10 = alloca i8, align 1
  %11 = alloca i8, align 1
  %12 = alloca i8, align 1
  %13 = alloca i8, align 1
  %14 = alloca i8, align 1
  %15 = alloca i32, align 4
  %16 = alloca i32, align 4
  %17 = alloca i32, align 4
  store ptr %0, ptr %6, align 8
  store ptr %1, ptr %7, align 8
  store ptr %2, ptr %8, align 8
  store ptr %3, ptr %9, align 8
  call void @llvm.lifetime.start.p0(i64 1, ptr %10) #13
  call void @llvm.lifetime.start.p0(i64 1, ptr %11) #13
  call void @llvm.lifetime.start.p0(i64 1, ptr %12) #13
  call void @llvm.lifetime.start.p0(i64 1, ptr %13) #13
  call void @llvm.lifetime.start.p0(i64 1, ptr %14) #13
  call void @llvm.lifetime.start.p0(i64 4, ptr %15) #13
  call void @llvm.lifetime.start.p0(i64 4, ptr %16) #13
  %18 = load ptr, ptr %6, align 8
  %19 = call i32 @tvb_captured_length(ptr noundef %18)
  %20 = icmp ult i32 %19, 7
  br i1 %20, label %21, label %22

21:                                               ; preds = %4
  store i1 false, ptr %5, align 1
  store i32 1, ptr %17, align 4
  br label %113

22:                                               ; preds = %4
  %23 = load ptr, ptr %6, align 8
  %24 = call zeroext i8 @tvb_get_uint8(ptr noundef %23, i32 noundef 0)
  store i8 %24, ptr %10, align 1
  %25 = load i8, ptr %10, align 1
  %26 = zext i8 %25 to i32
  %27 = and i32 %26, 31
  %28 = icmp ne i32 %27, 0
  br i1 %28, label %29, label %30

29:                                               ; preds = %22
  store i1 false, ptr %5, align 1
  store i32 1, ptr %17, align 4
  br label %113

30:                                               ; preds = %22
  %31 = load ptr, ptr %6, align 8
  %32 = call zeroext i8 @tvb_get_uint8(ptr noundef %31, i32 noundef 1)
  store i8 %32, ptr %11, align 1
  %33 = load i8, ptr %11, align 1
  %34 = zext i8 %33 to i32
  %35 = icmp sgt i32 %34, 56
  br i1 %35, label %36, label %37

36:                                               ; preds = %30
  store i1 false, ptr %5, align 1
  store i32 1, ptr %17, align 4
  br label %113

37:                                               ; preds = %30
  %38 = load ptr, ptr %6, align 8
  %39 = call zeroext i8 @tvb_get_uint8(ptr noundef %38, i32 noundef 2)
  %40 = zext i8 %39 to i32
  %41 = ashr i32 %40, 5
  %42 = trunc i32 %41 to i8
  store i8 %42, ptr %12, align 1
  %43 = load i8, ptr %12, align 1
  %44 = zext i8 %43 to i32
  %45 = icmp sge i32 %44, 3
  br i1 %45, label %46, label %47

46:                                               ; preds = %37
  store i1 false, ptr %5, align 1
  store i32 1, ptr %17, align 4
  br label %113

47:                                               ; preds = %37
  %48 = load ptr, ptr %6, align 8
  %49 = call zeroext i8 @tvb_get_uint8(ptr noundef %48, i32 noundef 2)
  %50 = zext i8 %49 to i32
  %51 = and i32 %50, 24
  %52 = ashr i32 %51, 3
  %53 = trunc i32 %52 to i8
  store i8 %53, ptr %13, align 1
  %54 = load i8, ptr %13, align 1
  %55 = zext i8 %54 to i32
  %56 = icmp eq i32 %55, 3
  br i1 %56, label %57, label %58

57:                                               ; preds = %47
  store i1 false, ptr %5, align 1
  store i32 1, ptr %17, align 4
  br label %113

58:                                               ; preds = %47
  %59 = load ptr, ptr %6, align 8
  %60 = call zeroext i8 @tvb_get_uint8(ptr noundef %59, i32 noundef 2)
  %61 = zext i8 %60 to i32
  %62 = and i32 %61, 2
  %63 = ashr i32 %62, 1
  %64 = trunc i32 %63 to i8
  store i8 %64, ptr %14, align 1
  %65 = load i8, ptr %14, align 1
  %66 = zext i8 %65 to i32
  %67 = icmp eq i32 %66, 0
  br i1 %67, label %68, label %69

68:                                               ; preds = %58
  store i32 4, ptr %16, align 4
  br label %70

69:                                               ; preds = %58
  store i32 5, ptr %16, align 4
  br label %70

70:                                               ; preds = %69, %68
  %71 = load ptr, ptr %6, align 8
  %72 = load i32, ptr %16, align 4
  %73 = call zeroext i8 @tvb_get_uint8(ptr noundef %71, i32 noundef %72)
  %74 = zext i8 %73 to i32
  store i32 %74, ptr %15, align 4
  %75 = load i32, ptr %16, align 4
  %76 = add i32 %75, 1
  store i32 %76, ptr %16, align 4
  %77 = load i32, ptr %15, align 4
  %78 = and i32 %77, 128
  %79 = icmp ne i32 %78, 0
  br i1 %79, label %80, label %99

80:                                               ; preds = %70
  %81 = load i32, ptr %15, align 4
  %82 = and i32 %81, 192
  %83 = icmp eq i32 %82, 128
  br i1 %83, label %84, label %97

84:                                               ; preds = %80
  %85 = load i32, ptr %15, align 4
  %86 = and i32 %85, 63
  store i32 %86, ptr %15, align 4
  %87 = load i32, ptr %15, align 4
  %88 = shl i32 %87, 8
  store i32 %88, ptr %15, align 4
  %89 = load ptr, ptr %6, align 8
  %90 = load i32, ptr %16, align 4
  %91 = call zeroext i8 @tvb_get_uint8(ptr noundef %89, i32 noundef %90)
  %92 = zext i8 %91 to i32
  %93 = load i32, ptr %15, align 4
  %94 = add i32 %93, %92
  store i32 %94, ptr %15, align 4
  %95 = load i32, ptr %16, align 4
  %96 = add i32 %95, 1
  store i32 %96, ptr %16, align 4
  br label %98

97:                                               ; preds = %80
  store i32 0, ptr %15, align 4
  br label %98

98:                                               ; preds = %97, %84
  br label %99

99:                                               ; preds = %98, %70
  %100 = load i32, ptr %15, align 4
  %101 = load ptr, ptr %6, align 8
  %102 = call i32 @tvb_reported_length(ptr noundef %101)
  %103 = load i32, ptr %16, align 4
  %104 = sub i32 %102, %103
  %105 = icmp ne i32 %100, %104
  br i1 %105, label %106, label %107

106:                                              ; preds = %99
  store i1 false, ptr %5, align 1
  store i32 1, ptr %17, align 4
  br label %113

107:                                              ; preds = %99
  %108 = load ptr, ptr %6, align 8
  %109 = load ptr, ptr %7, align 8
  %110 = load ptr, ptr %8, align 8
  %111 = load ptr, ptr %9, align 8
  %112 = call i32 @dissect_nbap(ptr noundef %108, ptr noundef %109, ptr noundef %110, ptr noundef %111)
  store i1 true, ptr %5, align 1
  store i32 1, ptr %17, align 4
  br label %113

113:                                              ; preds = %107, %106, %57, %46, %36, %29, %21
  call void @llvm.lifetime.end.p0(i64 4, ptr %16) #13
  call void @llvm.lifetime.end.p0(i64 4, ptr %15) #13
  call void @llvm.lifetime.end.p0(i64 1, ptr %14) #13
  call void @llvm.lifetime.end.p0(i64 1, ptr %13) #13
  call void @llvm.lifetime.end.p0(i64 1, ptr %12) #13
  call void @llvm.lifetime.end.p0(i64 1, ptr %11) #13
  call void @llvm.lifetime.end.p0(i64 1, ptr %10) #13
  %114 = load i1, ptr %5, align 1
  ret i1 %114
}