; Function Attrs: null_pointer_is_valid sspstrong uwtable
define internal noundef zeroext i1 @dissect_nbap_heur(ptr noundef %0, ptr noundef %1, ptr noundef %2, ptr readnone captures(none) %3) #0 {
  %5 = tail call i32 @tvb_captured_length(ptr noundef %0)
  %6 = icmp ult i32 %5, 7
  br i1 %6, label %42, label %7

7:                                                ; preds = %4
  %8 = tail call zeroext i8 @tvb_get_uint8(ptr noundef %0, i32 noundef 0)
  %9 = and i8 %8, 31
  %.not = icmp eq i8 %9, 0
  br i1 %.not, label %10, label %42

10:                                               ; preds = %7
  %11 = tail call zeroext i8 @tvb_get_uint8(ptr noundef %0, i32 noundef 1)
  %12 = icmp ugt i8 %11, 56
  br i1 %12, label %42, label %13

13:                                               ; preds = %10
  %14 = tail call zeroext i8 @tvb_get_uint8(ptr noundef %0, i32 noundef 2)
  %15 = icmp ugt i8 %14, 95
  br i1 %15, label %42, label %16

16:                                               ; preds = %13
  %17 = tail call zeroext i8 @tvb_get_uint8(ptr noundef %0, i32 noundef 2)
  %18 = and i8 %17, 24
  %19 = icmp eq i8 %18, 24
  br i1 %19, label %42, label %20

20:                                               ; preds = %16
  %21 = tail call zeroext i8 @tvb_get_uint8(ptr noundef %0, i32 noundef 2)
  %22 = and i8 %21, 2
  %23 = icmp eq i8 %22, 0
  %. = select i1 %23, i32 4, i32 5
  %24 = tail call zeroext i8 @tvb_get_uint8(ptr noundef %0, i32 noundef %.)
  %25 = zext i8 %24 to i32
  %26 = add nuw nsw i32 %., 1
  %.not31 = icmp sgt i8 %24, -1
  br i1 %.not31, label %37, label %27

27:                                               ; preds = %20
  %28 = and i32 %25, 192
  %29 = icmp eq i32 %28, 128
  br i1 %29, label %30, label %37

30:                                               ; preds = %27
  %31 = shl nuw nsw i32 %25, 8
  %32 = and i32 %31, 16128
  %33 = tail call zeroext i8 @tvb_get_uint8(ptr noundef %0, i32 noundef %26)
  %34 = zext i8 %33 to i32
  %35 = or disjoint i32 %32, %34
  %36 = or disjoint i32 %., 2
  br label %37

37:                                               ; preds = %27, %30, %20
  %.029 = phi i32 [ %35, %30 ], [ %25, %20 ], [ 0, %27 ]
  %.1 = phi i32 [ %36, %30 ], [ %26, %20 ], [ %26, %27 ]
  %38 = tail call i32 @tvb_reported_length(ptr noundef %0)
  %39 = sub i32 %38, %.1
  %.not32 = icmp eq i32 %.029, %39
  br i1 %.not32, label %40, label %42

40:                                               ; preds = %37
  %41 = tail call i32 @dissect_nbap(ptr noundef %0, ptr noundef %1, ptr noundef %2, ptr poison)
  br label %42

42:                                               ; preds = %37, %16, %13, %10, %7, %4, %40
  %.030 = phi i1 [ true, %40 ], [ false, %4 ], [ false, %7 ], [ false, %10 ], [ false, %13 ], [ false, %16 ], [ false, %37 ]
  ret i1 %.030
}